; Function Attrs: nounwind uwtable
define internal void @opcbfunc(i32 noundef %0, ptr noundef initializes((212, 216)) %1) #0 {
  fence release
  %3 = tail call i32 @prte_pmix_convert_status(i32 noundef %0) #16
  %4 = getelementptr inbounds nuw i8, ptr %1, i64 212
  store i32 %3, ptr %4, align 4, !tbaa !119
  %5 = getelementptr inbounds nuw i8, ptr %1, i64 120
  %6 = tail call i32 @pthread_mutex_lock(ptr noundef nonnull %5) #16
  %7 = getelementptr inbounds nuw i8, ptr %1, i64 208
  store volatile i8 0, ptr %7, align 8, !tbaa !116
  fence release
  %8 = getelementptr inbounds nuw i8, ptr %1, i64 160
  %9 = tail call i32 @pthread_cond_broadcast(ptr noundef nonnull %8) #16
  %10 = tail call i32 @pthread_mutex_unlock(ptr noundef nonnull %5) #16
  ret void
}